; Function Attrs: mustprogress uwtable
define noundef zeroext i1 @_ZN7rocksdb19MemTableListVersion16GetMergeOperandsERKNS_9LookupKeyEPNS_6StatusEPNS_12MergeContextEPmRKNS_11ReadOptionsE(ptr noundef nonnull readonly align 8 dereferenceable(88) %0, ptr noundef nonnull align 8 dereferenceable(224) %1, ptr noundef %2, ptr noundef %3, ptr noundef %4, ptr noundef nonnull align 8 dereferenceable(168) %5) local_unnamed_addr #4 align 2 {
  %7 = alloca i64, align 8
  br label %8

8:                                                ; preds = %9, %6
  %.sroa.016.0.in = phi ptr [ %0, %6 ], [ %.sroa.016.0, %9 ]
  %.sroa.016.0 = load ptr, ptr %.sroa.016.0.in, align 8, !tbaa !18
  %.not.not.not.not.not.not = icmp ne ptr %.sroa.016.0, %0
  br i1 %.not.not.not.not.not.not, label %9, label %16

9:                                                ; preds = %8
  %10 = getelementptr inbounds nuw i8, ptr %.sroa.016.0, i64 16
  %11 = load ptr, ptr %10, align 8, !tbaa !21
  call void @llvm.lifetime.start.p0(i64 8, ptr nonnull %7) #27
  %12 = load ptr, ptr %11, align 8, !tbaa !27
  %13 = getelementptr inbounds nuw i8, ptr %12, i64 80
  %14 = load ptr, ptr %13, align 8
  %15 = call noundef zeroext i1 %14(ptr noundef nonnull align 8 dereferenceable(560) %11, ptr noundef nonnull align 8 dereferenceable(224) %1, ptr noundef null, ptr noundef null, ptr noundef null, ptr noundef %2, ptr noundef %3, ptr noundef %4, ptr noundef nonnull %7, ptr noundef nonnull align 8 dereferenceable(168) %5, i1 noundef zeroext true, ptr noundef null, ptr noundef null, i1 noundef zeroext false)
  call void @llvm.lifetime.end.p0(i64 8, ptr nonnull %7) #27
  br i1 %15, label %16, label %8

16:                                               ; preds = %8, %9
  ret i1 %.not.not.not.not.not.not
}